target datalayout = "e-m:e-p270:32:32-p271:32:32-p272:64:64-i64:64-i128:128-f80:128-n8:16:32:64-S128"
target triple = "x86_64-pc-linux-gnu"

%struct.autoload_const = type { %struct.ccan_list_node, i64, i64, i64, i64, i32, i64, i32 }
%struct.ccan_list_node = type { ptr, ptr }
%struct.autoload_data = type { i64, i64, i64, %struct.ccan_list_head }
%struct.ccan_list_head = type { %struct.ccan_list_node }

@.str.51 = private unnamed_addr constant [19 x i8] c"../variable.c:2456\00", align 1

; Function Attrs: inlinehint nounwind sspstrong uwtable
define internal void @ccan_list_node_init(ptr noundef %0) #6 {
  %2 = alloca ptr, align 8
  store ptr %0, ptr %2, align 8, !tbaa !240
  %3 = load ptr, ptr %2, align 8, !tbaa !240
  %4 = load ptr, ptr %2, align 8, !tbaa !240
  %5 = getelementptr inbounds nuw %struct.ccan_list_node, ptr %4, i32 0, i32 1
  store ptr %3, ptr %5, align 8, !tbaa !245
  %6 = load ptr, ptr %2, align 8, !tbaa !240
  %7 = getelementptr inbounds nuw %struct.ccan_list_node, ptr %6, i32 0, i32 0
  store ptr %3, ptr %7, align 8, !tbaa !243
  ret void
}

; Function Attrs: inlinehint nounwind sspstrong uwtable
define internal void @ccan_list_del_(ptr noundef %0, ptr noundef %1) #6 {
  %3 = alloca ptr, align 8
  %4 = alloca ptr, align 8
  store ptr %0, ptr %3, align 8, !tbaa !240
  store ptr %1, ptr %4, align 8, !tbaa !16
  %5 = load ptr, ptr %3, align 8, !tbaa !240
  %6 = getelementptr inbounds nuw %struct.ccan_list_node, ptr %5, i32 0, i32 1
  %7 = load ptr, ptr %6, align 8, !tbaa !245
  %8 = load ptr, ptr %3, align 8, !tbaa !240
  %9 = getelementptr inbounds nuw %struct.ccan_list_node, ptr %8, i32 0, i32 0
  %10 = load ptr, ptr %9, align 8, !tbaa !243
  %11 = getelementptr inbounds nuw %struct.ccan_list_node, ptr %10, i32 0, i32 1
  store ptr %7, ptr %11, align 8, !tbaa !245
  %12 = load ptr, ptr %3, align 8, !tbaa !240
  %13 = getelementptr inbounds nuw %struct.ccan_list_node, ptr %12, i32 0, i32 0
  %14 = load ptr, ptr %13, align 8, !tbaa !243
  %15 = load ptr, ptr %3, align 8, !tbaa !240
  %16 = getelementptr inbounds nuw %struct.ccan_list_node, ptr %15, i32 0, i32 1
  %17 = load ptr, ptr %16, align 8, !tbaa !245
  %18 = getelementptr inbounds nuw %struct.ccan_list_node, ptr %17, i32 0, i32 0
  store ptr %14, ptr %18, align 8, !tbaa !243
  ret void
}

; Function Attrs: inlinehint nounwind sspstrong uwtable
define internal void @ccan_list_del_init_(ptr noundef %0, ptr noundef %1) #6 {
  %3 = alloca ptr, align 8
  %4 = alloca ptr, align 8
  store ptr %0, ptr %3, align 8, !tbaa !240
  store ptr %1, ptr %4, align 8, !tbaa !16
  %5 = load ptr, ptr %3, align 8, !tbaa !240
  %6 = load ptr, ptr %4, align 8, !tbaa !16
  call void @ccan_list_del_(ptr noundef %5, ptr noundef %6)
  %7 = load ptr, ptr %3, align 8, !tbaa !240
  call void @ccan_list_node_init(ptr noundef %7)
  ret void
}

; Function Attrs: inlinehint nounwind sspstrong uwtable
define internal ptr @ccan_list_node_from_off_(ptr noundef %0, i64 noundef %1) #6 {
  %3 = alloca ptr, align 8
  %4 = alloca i64, align 8
  store ptr %0, ptr %3, align 8, !tbaa !40
  store i64 %1, ptr %4, align 8, !tbaa !14
  %5 = load ptr, ptr %3, align 8, !tbaa !40
  %6 = load i64, ptr %4, align 8, !tbaa !14
  %7 = getelementptr i8, ptr %5, i64 %6
  ret ptr %7
}

; Function Attrs: inlinehint nounwind sspstrong uwtable
define internal ptr @ccan_list_node_to_off_(ptr noundef %0, i64 noundef %1) #6 {
  %3 = alloca ptr, align 8
  %4 = alloca i64, align 8
  store ptr %0, ptr %3, align 8, !tbaa !240
  store i64 %1, ptr %4, align 8, !tbaa !14
  %5 = load ptr, ptr %3, align 8, !tbaa !240
  %6 = load i64, ptr %4, align 8, !tbaa !14
  %7 = sub i64 0, %6
  %8 = getelementptr i8, ptr %5, i64 %7
  ret ptr %8
}

; Function Attrs: nounwind sspstrong uwtable
define internal void @autoload_data_free(ptr noundef %0) #0 {
  %2 = alloca ptr, align 8
  %3 = alloca ptr, align 8
  %4 = alloca ptr, align 8
  %5 = alloca ptr, align 8
  store ptr %0, ptr %2, align 8, !tbaa !40
  call void @llvm.lifetime.start.p0(i64 8, ptr %3) #30
  %6 = load ptr, ptr %2, align 8, !tbaa !40
  store ptr %6, ptr %3, align 8, !tbaa !152
  call void @llvm.lifetime.start.p0(i64 8, ptr %4) #30
  call void @llvm.lifetime.start.p0(i64 8, ptr %5) #30
  store ptr null, ptr %4, align 8, !tbaa !142
  %7 = load ptr, ptr %3, align 8, !tbaa !152
  %8 = getelementptr inbounds nuw %struct.autoload_data, ptr %7, i32 0, i32 3
  %9 = getelementptr inbounds nuw %struct.ccan_list_head, ptr %8, i32 0, i32 0
  %10 = getelementptr inbounds nuw %struct.ccan_list_node, ptr %9, i32 0, i32 0
  %11 = load ptr, ptr %10, align 8, !tbaa !242
  %12 = call ptr @ccan_list_node_to_off_(ptr noundef %11, i64 noundef 0)
  store ptr %12, ptr %4, align 8, !tbaa !142
  %13 = load ptr, ptr %4, align 8, !tbaa !142
  %14 = call ptr @ccan_list_node_from_off_(ptr noundef %13, i64 noundef 0)
  %15 = getelementptr inbounds nuw %struct.ccan_list_node, ptr %14, i32 0, i32 0
  %16 = load ptr, ptr %15, align 8, !tbaa !243
  %17 = call ptr @ccan_list_node_to_off_(ptr noundef %16, i64 noundef 0)
  store ptr %17, ptr %5, align 8, !tbaa !142
  br label %18

18:                                               ; preds = %28, %1
  %19 = load ptr, ptr %4, align 8, !tbaa !142
  %20 = call ptr @ccan_list_node_from_off_(ptr noundef %19, i64 noundef 0)
  %21 = load ptr, ptr %3, align 8, !tbaa !152
  %22 = getelementptr inbounds nuw %struct.autoload_data, ptr %21, i32 0, i32 3
  %23 = getelementptr inbounds nuw %struct.ccan_list_head, ptr %22, i32 0, i32 0
  %24 = icmp ne ptr %20, %23
  br i1 %24, label %25, label %35

25:                                               ; preds = %18
  %26 = load ptr, ptr %4, align 8, !tbaa !142
  %27 = getelementptr inbounds nuw %struct.autoload_const, ptr %26, i32 0, i32 0
  call void @ccan_list_del_init_(ptr noundef %27, ptr noundef @.str.51)
  br label %28

28:                                               ; preds = %25
  %29 = load ptr, ptr %5, align 8, !tbaa !142
  store ptr %29, ptr %4, align 8, !tbaa !142
  %30 = load ptr, ptr %4, align 8, !tbaa !142
  %31 = call ptr @ccan_list_node_from_off_(ptr noundef %30, i64 noundef 0)
  %32 = getelementptr inbounds nuw %struct.ccan_list_node, ptr %31, i32 0, i32 0
  %33 = load ptr, ptr %32, align 8, !tbaa !243
  %34 = call ptr @ccan_list_node_to_off_(ptr noundef %33, i64 noundef 0)
  store ptr %34, ptr %5, align 8, !tbaa !142
  br label %18, !llvm.loop !244

35:                                               ; preds = %18
  %36 = load ptr, ptr %3, align 8, !tbaa !152
  call void @ruby_xfree(ptr noundef %36)
  call void @llvm.lifetime.end.p0(i64 8, ptr %5) #30
  call void @llvm.lifetime.end.p0(i64 8, ptr %4) #30
  call void @llvm.lifetime.end.p0(i64 8, ptr %3) #30
  ret void
}