; Function Attrs: nounwind sspstrong uwtable
define internal void @autoload_data_free(ptr noundef %0) #0 {
  %2 = getelementptr inbounds nuw i8, ptr %0, i64 24
  %3 = load ptr, ptr %2, align 8, !tbaa !153
  %.not10 = icmp eq ptr %3, %2
  br i1 %.not10, label %._crit_edge, label %.lr.ph

.lr.ph:                                           ; preds = %1, %.lr.ph
  %.0911 = phi ptr [ %.0, %.lr.ph ], [ %3, %1 ]
  %.0 = load ptr, ptr %.0911, align 8, !tbaa !160
  %4 = getelementptr inbounds nuw i8, ptr %.0911, i64 8
  %5 = load ptr, ptr %4, align 8, !tbaa !161
  %6 = getelementptr inbounds nuw i8, ptr %.0, i64 8
  store ptr %5, ptr %6, align 8, !tbaa !161
  store ptr %.0, ptr %5, align 8, !tbaa !160
  store ptr %.0911, ptr %4, align 8, !tbaa !161
  store ptr %.0911, ptr %.0911, align 8, !tbaa !160
  %.not = icmp eq ptr %.0, %2
  br i1 %.not, label %._crit_edge, label %.lr.ph, !llvm.loop !220

._crit_edge:                                      ; preds = %.lr.ph, %1
  tail call void @ruby_xfree(ptr noundef %0) #27
  ret void
}